   1              	 .syntax unified
   2              	 .cpu cortex-m4
   3              	 .eabi_attribute 27,3
   4              	 .fpu fpv4-sp-d16
   5              	 .eabi_attribute 20,1
   6              	 .eabi_attribute 21,1
   7              	 .eabi_attribute 23,3
   8              	 .eabi_attribute 24,1
   9              	 .eabi_attribute 25,1
  10              	 .eabi_attribute 26,1
  11              	 .eabi_attribute 30,6
  12              	 .eabi_attribute 34,1
  13              	 .eabi_attribute 18,4
  14              	 .thumb
  15              	 .file "main.c"
  16              	 .text
  17              	.Ltext0:
  18              	 .cfi_sections .debug_frame
  19              	 .comm a,4,4
  20              	 .global b
  21              	 .section .bss.b,"aw",%nobits
  22              	 .align 2
  25              	b:
  26 0000 00000000 	 .space 4
  27              	 .global c
  28              	 .section .bss.c,"aw",%nobits
  29              	 .align 2
  32              	c:
  33 0000 00000000 	 .space 4
  34              	 .section .text.main,"ax",%progbits
  35              	 .align 2
  36              	 .global main
  37              	 .thumb
  38              	 .thumb_func
  40              	main:
  41              	.LFB133:
  42              	 .file 1 "../main.c"
   1:../main.c     **** /*
   2:../main.c     ****  * main.c
   3:../main.c     ****  *
   4:../main.c     ****  *  Created on: 2026 Feb 09 11:46:17
   5:../main.c     ****  *  Author: Admin
   6:../main.c     ****  */
   7:../main.c     **** 
   8:../main.c     **** 
   9:../main.c     **** 
  10:../main.c     **** 
  11:../main.c     **** #include "DAVE.h"                 //Declarations from DAVE Code Generation (includes SFR declaratio
  12:../main.c     **** 
  13:../main.c     **** /**
  14:../main.c     **** 
  15:../main.c     ****  * @brief main() - Application entry point
  16:../main.c     ****  *
  17:../main.c     ****  * <b>Details of function</b><br>
  18:../main.c     ****  * This routine is the application entry point. It is invoked by the device startup code. It is res
  19:../main.c     ****  * invoking the APP initialization dispatcher routine - DAVE_Init() and hosting the place-holder fo
  20:../main.c     ****  * code.
  21:../main.c     ****  */
  22:../main.c     **** void f1(void);
  23:../main.c     **** void f2(void);
  24:../main.c     **** volatile int a, b = 0 , c = 0;
  25:../main.c     **** 
  26:../main.c     **** int main(void)
  27:../main.c     **** {
  43              	 .loc 1 27 0
  44              	 .cfi_startproc
  45              	 
  46              	 
  47 0000 80B5     	 push {r7,lr}
  48              	.LCFI0:
  49              	 .cfi_def_cfa_offset 8
  50              	 .cfi_offset 7,-8
  51              	 .cfi_offset 14,-4
  52 0002 82B0     	 sub sp,sp,#8
  53              	.LCFI1:
  54              	 .cfi_def_cfa_offset 16
  55 0004 00AF     	 add r7,sp,#0
  56              	.LCFI2:
  57              	 .cfi_def_cfa_register 7
  28:../main.c     **** 
  29:../main.c     ****   DAVE_STATUS_t status;
  30:../main.c     **** 
  31:../main.c     ****   status = DAVE_Init();           /* Initialization of DAVE APPs  */
  58              	 .loc 1 31 0
  59 0006 FFF7FEFF 	 bl DAVE_Init
  60 000a 0346     	 mov r3,r0
  61 000c FB71     	 strb r3,[r7,#7]
  32:../main.c     **** 
  33:../main.c     ****   if (status != DAVE_STATUS_SUCCESS)
  62              	 .loc 1 33 0
  63 000e FB79     	 ldrb r3,[r7,#7]
  64 0010 002B     	 cmp r3,#0
  65 0012 00D0     	 beq .L2
  66              	.L3:
  34:../main.c     ****   {
  35:../main.c     ****     /* Placeholder for error handler code. The while loop below can be replaced with an user error 
  36:../main.c     ****     XMC_DEBUG("DAVE APPs initialization failed\n");
  37:../main.c     **** 
  38:../main.c     ****     while(1U)
  39:../main.c     ****     {
  40:../main.c     **** 
  41:../main.c     ****     }
  67              	 .loc 1 41 0 discriminator 1
  68 0014 FEE7     	 b .L3
  69              	.L2:
  42:../main.c     ****   }
  43:../main.c     **** 
  44:../main.c     ****   /* Placeholder for user application code. The while loop below can be replaced with user applicat
  45:../main.c     ****   while(1U)
  46:../main.c     ****   {
  47:../main.c     **** 
  48:../main.c     **** 
  49:../main.c     **** 
  50:../main.c     ****   }
  70              	 .loc 1 50 0 discriminator 2
  71 0016 FEE7     	 b .L2
  72              	 .cfi_endproc
  73              	.LFE133:
  75              	 .section .text.f1,"ax",%progbits
  76              	 .align 2
  77              	 .global f1
  78              	 .thumb
  79              	 .thumb_func
  81              	f1:
  82              	.LFB134:
  51:../main.c     **** }
  52:../main.c     **** 
  53:../main.c     **** void f1(void)
  54:../main.c     **** {
  83              	 .loc 1 54 0
  84              	 .cfi_startproc
  85              	 
  86              	 
  87              	 
  88 0000 80B4     	 push {r7}
  89              	.LCFI3:
  90              	 .cfi_def_cfa_offset 4
  91              	 .cfi_offset 7,-4
  92 0002 00AF     	 add r7,sp,#0
  93              	.LCFI4:
  94              	 .cfi_def_cfa_register 7
  55:../main.c     **** 	//int a, b, c;
  56:../main.c     **** 	a = b + c;
  95              	 .loc 1 56 0
  96 0004 074B     	 ldr r3,.L5
  97 0006 1A68     	 ldr r2,[r3]
  98 0008 074B     	 ldr r3,.L5+4
  99 000a 1B68     	 ldr r3,[r3]
 100 000c 1344     	 add r3,r3,r2
 101 000e 074A     	 ldr r2,.L5+8
 102 0010 1360     	 str r3,[r2]
  57:../main.c     **** 	a++;
 103              	 .loc 1 57 0
 104 0012 064B     	 ldr r3,.L5+8
 105 0014 1B68     	 ldr r3,[r3]
 106 0016 0133     	 adds r3,r3,#1
 107 0018 044A     	 ldr r2,.L5+8
 108 001a 1360     	 str r3,[r2]
  58:../main.c     **** }
 109              	 .loc 1 58 0
 110 001c BD46     	 mov sp,r7
 111              	.LCFI5:
 112              	 .cfi_def_cfa_register 13
 113              	 
 114 001e 5DF8047B 	 ldr r7,[sp],#4
 115              	.LCFI6:
 116              	 .cfi_restore 7
 117              	 .cfi_def_cfa_offset 0
 118 0022 7047     	 bx lr
 119              	.L6:
 120              	 .align 2
 121              	.L5:
 122 0024 00000000 	 .word b
 123 0028 00000000 	 .word c
 124 002c 00000000 	 .word a
 125              	 .cfi_endproc
 126              	.LFE134:
 128              	 .section .text.f2,"ax",%progbits
 129              	 .align 2
 130              	 .global f2
 131              	 .thumb
 132              	 .thumb_func
 134              	f2:
 135              	.LFB135:
  59:../main.c     **** 
  60:../main.c     **** void f2(void)
  61:../main.c     **** {
 136              	 .loc 1 61 0
 137              	 .cfi_startproc
 138              	 
 139              	 
 140              	 
 141 0000 80B4     	 push {r7}
 142              	.LCFI7:
 143              	 .cfi_def_cfa_offset 4
 144              	 .cfi_offset 7,-4
 145 0002 85B0     	 sub sp,sp,#20
 146              	.LCFI8:
 147              	 .cfi_def_cfa_offset 24
 148 0004 00AF     	 add r7,sp,#0
 149              	.LCFI9:
 150              	 .cfi_def_cfa_register 7
  62:../main.c     **** 	int a, b, c;
  63:../main.c     **** 	a = b+c;
 151              	 .loc 1 63 0
 152 0006 FA68     	 ldr r2,[r7,#12]
 153 0008 BB68     	 ldr r3,[r7,#8]
 154 000a 1344     	 add r3,r3,r2
 155 000c 7B60     	 str r3,[r7,#4]
  64:../main.c     **** }
 156              	 .loc 1 64 0
 157 000e 1437     	 adds r7,r7,#20
 158              	.LCFI10:
 159              	 .cfi_def_cfa_offset 4
 160 0010 BD46     	 mov sp,r7
 161              	.LCFI11:
 162              	 .cfi_def_cfa_register 13
 163              	 
 164 0012 5DF8047B 	 ldr r7,[sp],#4
 165              	.LCFI12:
 166              	 .cfi_restore 7
 167              	 .cfi_def_cfa_offset 0
 168 0016 7047     	 bx lr
 169              	 .cfi_endproc
 170              	.LFE135:
 172              	 .text
 173              	.Letext0:
 174              	 .file 2 "c:\\infineon\\tools\\dave ide\\4.5.0.202105191637\\eclipse\\arm-gcc-49\\arm-none-eabi\\include\\machine\\_default_types.h"
 175              	 .file 3 "c:\\infineon\\tools\\dave ide\\4.5.0.202105191637\\eclipse\\arm-gcc-49\\arm-none-eabi\\include\\stdint.h"
 176              	 .file 4 "C:/Infineon/Tools/DAVE IDE/4.5.0.202105191637/eclipse/workspace/Scheduler_T3/Dave/Generated/DAVE.h"
 177              	 .file 5 "C:/Infineon/Tools/DAVE IDE/4.5.0.202105191637/eclipse/workspace/Scheduler_T3/Libraries/CMSIS/Include/cmsis_gcc.h"
 178              	 .file 6 "C:/Infineon/Tools/DAVE IDE/4.5.0.202105191637/eclipse/workspace/Scheduler_T3/Libraries/CMSIS/Include/core_cm4.h"